target datalayout = "e-m:e-p270:32:32-p271:32:32-p272:64:64-i64:64-i128:128-f80:128-n8:16:32:64-S128"
target triple = "x86_64-pc-linux-gnu"

%struct.WebPDecBuffer = type { i32, i32, i32, i32, %union.anon, [4 x i32], ptr }
%union.anon = type { %struct.WebPYUVABuffer }
%struct.WebPYUVABuffer = type { ptr, ptr, ptr, ptr, i32, i32, i32, i32, i64, i64, i64, i64 }

@.str.2 = private unnamed_addr constant [14 x i8] c"P5\0A%d %d\0A255\0A\00", align 1

; Function Attrs: nounwind uwtable
define hidden i32 @WebPWritePGM(ptr noundef %0, ptr noundef %1) #0 {
  %3 = alloca i32, align 4
  %4 = alloca ptr, align 8
  %5 = alloca ptr, align 8
  %6 = alloca i32, align 4
  %7 = alloca i32, align 4
  %8 = alloca ptr, align 8
  %9 = alloca ptr, align 8
  %10 = alloca ptr, align 8
  %11 = alloca ptr, align 8
  %12 = alloca ptr, align 8
  %13 = alloca i32, align 4
  %14 = alloca i32, align 4
  %15 = alloca i32, align 4
  %16 = alloca i32, align 4
  %17 = alloca i32, align 4
  %18 = alloca i32, align 4
  store ptr %0, ptr %4, align 8, !tbaa !4
  store ptr %1, ptr %5, align 8, !tbaa !9
  %19 = load ptr, ptr %4, align 8, !tbaa !4
  %20 = icmp eq ptr %19, null
  br i1 %20, label %24, label %21

21:                                               ; preds = %2
  %22 = load ptr, ptr %5, align 8, !tbaa !9
  %23 = icmp eq ptr %22, null
  br i1 %23, label %24, label %25

24:                                               ; preds = %21, %2
  store i32 0, ptr %3, align 4
  br label %197

25:                                               ; preds = %21
  call void @llvm.lifetime.start.p0(i64 4, ptr %6) #9
  %26 = load ptr, ptr %5, align 8, !tbaa !9
  %27 = getelementptr inbounds nuw %struct.WebPDecBuffer, ptr %26, i32 0, i32 1
  %28 = load i32, ptr %27, align 4, !tbaa !15
  store i32 %28, ptr %6, align 4, !tbaa !19
  call void @llvm.lifetime.start.p0(i64 4, ptr %7) #9
  %29 = load ptr, ptr %5, align 8, !tbaa !9
  %30 = getelementptr inbounds nuw %struct.WebPDecBuffer, ptr %29, i32 0, i32 2
  %31 = load i32, ptr %30, align 8, !tbaa !20
  store i32 %31, ptr %7, align 4, !tbaa !19
  call void @llvm.lifetime.start.p0(i64 8, ptr %8) #9
  %32 = load ptr, ptr %5, align 8, !tbaa !9
  %33 = getelementptr inbounds nuw %struct.WebPDecBuffer, ptr %32, i32 0, i32 4
  store ptr %33, ptr %8, align 8, !tbaa !33
  call void @llvm.lifetime.start.p0(i64 8, ptr %9) #9
  %34 = load ptr, ptr %8, align 8, !tbaa !33
  %35 = getelementptr inbounds nuw %struct.WebPYUVABuffer, ptr %34, i32 0, i32 0
  %36 = load ptr, ptr %35, align 8, !tbaa !35
  store ptr %36, ptr %9, align 8, !tbaa !22
  call void @llvm.lifetime.start.p0(i64 8, ptr %10) #9
  %37 = load ptr, ptr %8, align 8, !tbaa !33
  %38 = getelementptr inbounds nuw %struct.WebPYUVABuffer, ptr %37, i32 0, i32 1
  %39 = load ptr, ptr %38, align 8, !tbaa !37
  store ptr %39, ptr %10, align 8, !tbaa !22
  call void @llvm.lifetime.start.p0(i64 8, ptr %11) #9
  %40 = load ptr, ptr %8, align 8, !tbaa !33
  %41 = getelementptr inbounds nuw %struct.WebPYUVABuffer, ptr %40, i32 0, i32 2
  %42 = load ptr, ptr %41, align 8, !tbaa !38
  store ptr %42, ptr %11, align 8, !tbaa !22
  call void @llvm.lifetime.start.p0(i64 8, ptr %12) #9
  %43 = load ptr, ptr %8, align 8, !tbaa !33
  %44 = getelementptr inbounds nuw %struct.WebPYUVABuffer, ptr %43, i32 0, i32 3
  %45 = load ptr, ptr %44, align 8, !tbaa !39
  store ptr %45, ptr %12, align 8, !tbaa !22
  call void @llvm.lifetime.start.p0(i64 4, ptr %13) #9
  %46 = load i32, ptr %6, align 4, !tbaa !19
  %47 = add nsw i32 %46, 1
  %48 = sdiv i32 %47, 2
  store i32 %48, ptr %13, align 4, !tbaa !19
  call void @llvm.lifetime.start.p0(i64 4, ptr %14) #9
  %49 = load i32, ptr %7, align 4, !tbaa !19
  %50 = add nsw i32 %49, 1
  %51 = sdiv i32 %50, 2
  store i32 %51, ptr %14, align 4, !tbaa !19
  call void @llvm.lifetime.start.p0(i64 4, ptr %15) #9
  %52 = load ptr, ptr %12, align 8, !tbaa !22
  %53 = icmp ne ptr %52, null
  br i1 %53, label %54, label %56

54:                                               ; preds = %25
  %55 = load i32, ptr %7, align 4, !tbaa !19
  br label %57

56:                                               ; preds = %25
  br label %57

57:                                               ; preds = %56, %54
  %58 = phi i32 [ %55, %54 ], [ 0, %56 ]
  store i32 %58, ptr %15, align 4, !tbaa !19
  call void @llvm.lifetime.start.p0(i64 4, ptr %16) #9
  store i32 1, ptr %16, align 4, !tbaa !19
  call void @llvm.lifetime.start.p0(i64 4, ptr %17) #9
  %59 = load ptr, ptr %9, align 8, !tbaa !22
  %60 = icmp eq ptr %59, null
  br i1 %60, label %67, label %61

61:                                               ; preds = %57
  %62 = load ptr, ptr %10, align 8, !tbaa !22
  %63 = icmp eq ptr %62, null
  br i1 %63, label %67, label %64

64:                                               ; preds = %61
  %65 = load ptr, ptr %11, align 8, !tbaa !22
  %66 = icmp eq ptr %65, null
  br i1 %66, label %67, label %68

67:                                               ; preds = %64, %61, %57
  store i32 0, ptr %3, align 4
  store i32 1, ptr %18, align 4
  br label %196

68:                                               ; preds = %64
  %69 = load ptr, ptr %4, align 8, !tbaa !4
  %70 = load i32, ptr %6, align 4, !tbaa !19
  %71 = add nsw i32 %70, 1
  %72 = and i32 %71, -2
  %73 = load i32, ptr %7, align 4, !tbaa !19
  %74 = load i32, ptr %14, align 4, !tbaa !19
  %75 = add nsw i32 %73, %74
  %76 = load i32, ptr %15, align 4, !tbaa !19
  %77 = add nsw i32 %75, %76
  %78 = call i32 (ptr, ptr, ...) @fprintf(ptr noundef %69, ptr noundef @.str.2, i32 noundef %72, i32 noundef %77) #9
  store i32 0, ptr %17, align 4, !tbaa !19
  br label %79

79:                                               ; preds = %111, %68
  %80 = load i32, ptr %16, align 4, !tbaa !19
  %81 = icmp ne i32 %80, 0
  br i1 %81, label %82, label %86

82:                                               ; preds = %79
  %83 = load i32, ptr %17, align 4, !tbaa !19
  %84 = load i32, ptr %7, align 4, !tbaa !19
  %85 = icmp slt i32 %83, %84
  br label %86

86:                                               ; preds = %82, %79
  %87 = phi i1 [ false, %79 ], [ %85, %82 ]
  br i1 %87, label %88, label %114

88:                                               ; preds = %86
  %89 = load ptr, ptr %9, align 8, !tbaa !22
  %90 = load i32, ptr %6, align 4, !tbaa !19
  %91 = sext i32 %90 to i64
  %92 = load ptr, ptr %4, align 8, !tbaa !4
  %93 = call i64 @fwrite(ptr noundef %89, i64 noundef %91, i64 noundef 1, ptr noundef %92)
  %94 = icmp eq i64 %93, 1
  %95 = zext i1 %94 to i32
  %96 = load i32, ptr %16, align 4, !tbaa !19
  %97 = and i32 %96, %95
  store i32 %97, ptr %16, align 4, !tbaa !19
  %98 = load i32, ptr %6, align 4, !tbaa !19
  %99 = and i32 %98, 1
  %100 = icmp ne i32 %99, 0
  br i1 %100, label %101, label %104

101:                                              ; preds = %88
  %102 = load ptr, ptr %4, align 8, !tbaa !4
  %103 = call i32 @fputc(i32 noundef 0, ptr noundef %102)
  br label %104

104:                                              ; preds = %101, %88
  %105 = load ptr, ptr %8, align 8, !tbaa !33
  %106 = getelementptr inbounds nuw %struct.WebPYUVABuffer, ptr %105, i32 0, i32 4
  %107 = load i32, ptr %106, align 8, !tbaa !40
  %108 = load ptr, ptr %9, align 8, !tbaa !22
  %109 = sext i32 %107 to i64
  %110 = getelementptr inbounds i8, ptr %108, i64 %109
  store ptr %110, ptr %9, align 8, !tbaa !22
  br label %111

111:                                              ; preds = %104
  %112 = load i32, ptr %17, align 4, !tbaa !19
  %113 = add nsw i32 %112, 1
  store i32 %113, ptr %17, align 4, !tbaa !19
  br label %79, !llvm.loop !41

114:                                              ; preds = %86
  store i32 0, ptr %17, align 4, !tbaa !19
  br label %115

115:                                              ; preds = %155, %114
  %116 = load i32, ptr %16, align 4, !tbaa !19
  %117 = icmp ne i32 %116, 0
  br i1 %117, label %118, label %122

118:                                              ; preds = %115
  %119 = load i32, ptr %17, align 4, !tbaa !19
  %120 = load i32, ptr %14, align 4, !tbaa !19
  %121 = icmp slt i32 %119, %120
  br label %122

122:                                              ; preds = %118, %115
  %123 = phi i1 [ false, %115 ], [ %121, %118 ]
  br i1 %123, label %124, label %158

124:                                              ; preds = %122
  %125 = load ptr, ptr %10, align 8, !tbaa !22
  %126 = load i32, ptr %13, align 4, !tbaa !19
  %127 = sext i32 %126 to i64
  %128 = load ptr, ptr %4, align 8, !tbaa !4
  %129 = call i64 @fwrite(ptr noundef %125, i64 noundef %127, i64 noundef 1, ptr noundef %128)
  %130 = icmp eq i64 %129, 1
  %131 = zext i1 %130 to i32
  %132 = load i32, ptr %16, align 4, !tbaa !19
  %133 = and i32 %132, %131
  store i32 %133, ptr %16, align 4, !tbaa !19
  %134 = load ptr, ptr %11, align 8, !tbaa !22
  %135 = load i32, ptr %13, align 4, !tbaa !19
  %136 = sext i32 %135 to i64
  %137 = load ptr, ptr %4, align 8, !tbaa !4
  %138 = call i64 @fwrite(ptr noundef %134, i64 noundef %136, i64 noundef 1, ptr noundef %137)
  %139 = icmp eq i64 %138, 1
  %140 = zext i1 %139 to i32
  %141 = load i32, ptr %16, align 4, !tbaa !19
  %142 = and i32 %141, %140
  store i32 %142, ptr %16, align 4, !tbaa !19
  %143 = load ptr, ptr %8, align 8, !tbaa !33
  %144 = getelementptr inbounds nuw %struct.WebPYUVABuffer, ptr %143, i32 0, i32 5
  %145 = load i32, ptr %144, align 4, !tbaa !42
  %146 = load ptr, ptr %10, align 8, !tbaa !22
  %147 = sext i32 %145 to i64
  %148 = getelementptr inbounds i8, ptr %146, i64 %147
  store ptr %148, ptr %10, align 8, !tbaa !22
  %149 = load ptr, ptr %8, align 8, !tbaa !33
  %150 = getelementptr inbounds nuw %struct.WebPYUVABuffer, ptr %149, i32 0, i32 6
  %151 = load i32, ptr %150, align 8, !tbaa !43
  %152 = load ptr, ptr %11, align 8, !tbaa !22
  %153 = sext i32 %151 to i64
  %154 = getelementptr inbounds i8, ptr %152, i64 %153
  store ptr %154, ptr %11, align 8, !tbaa !22
  br label %155

155:                                              ; preds = %124
  %156 = load i32, ptr %17, align 4, !tbaa !19
  %157 = add nsw i32 %156, 1
  store i32 %157, ptr %17, align 4, !tbaa !19
  br label %115, !llvm.loop !44

158:                                              ; preds = %122
  store i32 0, ptr %17, align 4, !tbaa !19
  br label %159

159:                                              ; preds = %191, %158
  %160 = load i32, ptr %16, align 4, !tbaa !19
  %161 = icmp ne i32 %160, 0
  br i1 %161, label %162, label %166

162:                                              ; preds = %159
  %163 = load i32, ptr %17, align 4, !tbaa !19
  %164 = load i32, ptr %15, align 4, !tbaa !19
  %165 = icmp slt i32 %163, %164
  br label %166

166:                                              ; preds = %162, %159
  %167 = phi i1 [ false, %159 ], [ %165, %162 ]
  br i1 %167, label %168, label %194

168:                                              ; preds = %166
  %169 = load ptr, ptr %12, align 8, !tbaa !22
  %170 = load i32, ptr %6, align 4, !tbaa !19
  %171 = sext i32 %170 to i64
  %172 = load ptr, ptr %4, align 8, !tbaa !4
  %173 = call i64 @fwrite(ptr noundef %169, i64 noundef %171, i64 noundef 1, ptr noundef %172)
  %174 = icmp eq i64 %173, 1
  %175 = zext i1 %174 to i32
  %176 = load i32, ptr %16, align 4, !tbaa !19
  %177 = and i32 %176, %175
  store i32 %177, ptr %16, align 4, !tbaa !19
  %178 = load i32, ptr %6, align 4, !tbaa !19
  %179 = and i32 %178, 1
  %180 = icmp ne i32 %179, 0
  br i1 %180, label %181, label %184

181:                                              ; preds = %168
  %182 = load ptr, ptr %4, align 8, !tbaa !4
  %183 = call i32 @fputc(i32 noundef 0, ptr noundef %182)
  br label %184

184:                                              ; preds = %181, %168
  %185 = load ptr, ptr %8, align 8, !tbaa !33
  %186 = getelementptr inbounds nuw %struct.WebPYUVABuffer, ptr %185, i32 0, i32 7
  %187 = load i32, ptr %186, align 4, !tbaa !45
  %188 = load ptr, ptr %12, align 8, !tbaa !22
  %189 = sext i32 %187 to i64
  %190 = getelementptr inbounds i8, ptr %188, i64 %189
  store ptr %190, ptr %12, align 8, !tbaa !22
  br label %191

191:                                              ; preds = %184
  %192 = load i32, ptr %17, align 4, !tbaa !19
  %193 = add nsw i32 %192, 1
  store i32 %193, ptr %17, align 4, !tbaa !19
  br label %159, !llvm.loop !46

194:                                              ; preds = %166
  %195 = load i32, ptr %16, align 4, !tbaa !19
  store i32 %195, ptr %3, align 4
  store i32 1, ptr %18, align 4
  br label %196

196:                                              ; preds = %194, %67
  call void @llvm.lifetime.end.p0(i64 4, ptr %17) #9
  call void @llvm.lifetime.end.p0(i64 4, ptr %16) #9
  call void @llvm.lifetime.end.p0(i64 4, ptr %15) #9
  call void @llvm.lifetime.end.p0(i64 4, ptr %14) #9
  call void @llvm.lifetime.end.p0(i64 4, ptr %13) #9
  call void @llvm.lifetime.end.p0(i64 8, ptr %12) #9
  call void @llvm.lifetime.end.p0(i64 8, ptr %11) #9
  call void @llvm.lifetime.end.p0(i64 8, ptr %10) #9
  call void @llvm.lifetime.end.p0(i64 8, ptr %9) #9
  call void @llvm.lifetime.end.p0(i64 8, ptr %8) #9
  call void @llvm.lifetime.end.p0(i64 4, ptr %7) #9
  call void @llvm.lifetime.end.p0(i64 4, ptr %6) #9
  br label %197

197:                                              ; preds = %196, %24
  %198 = load i32, ptr %3, align 4
  ret i32 %198
}