; Function Attrs: nofree nounwind uwtable
define hidden range(i32 0, 2) i32 @WebPWritePGM(ptr noundef captures(address_is_null) %0, ptr noundef readonly captures(address_is_null) %1) local_unnamed_addr #6 {
  %3 = icmp eq ptr %0, null
  %4 = icmp eq ptr %1, null
  %or.cond = or i1 %3, %4
  br i1 %or.cond, label %.loopexit, label %5

5:                                                ; preds = %2
  %6 = getelementptr inbounds nuw i8, ptr %1, i64 4
  %7 = load i32, ptr %6, align 4, !tbaa !11
  %.fr98 = freeze i32 %7
  %8 = getelementptr inbounds nuw i8, ptr %1, i64 8
  %9 = load i32, ptr %8, align 8, !tbaa !15
  %10 = getelementptr inbounds nuw i8, ptr %1, i64 16
  %11 = load ptr, ptr %10, align 8, !tbaa !26
  %12 = getelementptr inbounds nuw i8, ptr %1, i64 24
  %13 = load ptr, ptr %12, align 8, !tbaa !29
  %14 = getelementptr inbounds nuw i8, ptr %1, i64 32
  %15 = load ptr, ptr %14, align 8, !tbaa !30
  %16 = getelementptr inbounds nuw i8, ptr %1, i64 40
  %17 = load ptr, ptr %16, align 8, !tbaa !31
  %18 = add nsw i32 %.fr98, 1
  %19 = sdiv i32 %18, 2
  %20 = add nsw i32 %9, 1
  %21 = sdiv i32 %20, 2
  %.not = icmp eq ptr %17, null
  %22 = select i1 %.not, i32 0, i32 %9
  %23 = icmp eq ptr %11, null
  %24 = icmp eq ptr %13, null
  %or.cond3 = select i1 %23, i1 true, i1 %24
  %25 = icmp eq ptr %15, null
  %or.cond5 = select i1 %or.cond3, i1 true, i1 %25
  br i1 %or.cond5, label %.loopexit, label %26

26:                                               ; preds = %5
  %27 = and i32 %18, -2
  %28 = add nsw i32 %21, %9
  %29 = add nsw i32 %28, %22
  %30 = tail call i32 (ptr, ptr, ...) @fprintf(ptr noundef nonnull %0, ptr noundef nonnull @.str.2, i32 noundef %27, i32 noundef %29) #9
  %31 = icmp sgt i32 %9, 0
  br i1 %31, label %.lr.ph, label %.preheader

.lr.ph:                                           ; preds = %26
  %32 = sext i32 %.fr98 to i64
  %33 = and i32 %.fr98, 1
  %.not82 = icmp eq i32 %33, 0
  %34 = getelementptr inbounds nuw i8, ptr %1, i64 48
  br i1 %.not82, label %.lr.ph.split.us, label %.lr.ph.split

.lr.ph.split.us:                                  ; preds = %.lr.ph, %.lr.ph.split.us
  %.085.us = phi i32 [ %40, %.lr.ph.split.us ], [ 0, %.lr.ph ]
  %.07284.us = phi ptr [ %39, %.lr.ph.split.us ], [ %11, %.lr.ph ]
  %35 = tail call i64 @fwrite(ptr noundef %.07284.us, i64 noundef %32, i64 noundef 1, ptr noundef nonnull %0)
  %36 = icmp eq i64 %35, 1
  %37 = load i32, ptr %34, align 8, !tbaa !32
  %38 = sext i32 %37 to i64
  %39 = getelementptr inbounds i8, ptr %.07284.us, i64 %38
  %40 = add nuw nsw i32 %.085.us, 1
  %41 = icmp slt i32 %40, %9
  %42 = select i1 %36, i1 %41, i1 false
  br i1 %42, label %.lr.ph.split.us, label %.preheader83, !llvm.loop !33

.preheader83:                                     ; preds = %.lr.ph.split, %.lr.ph.split.us
  %.067.lcssa.shrunk = phi i1 [ %36, %.lr.ph.split.us ], [ %47, %.lr.ph.split ]
  br i1 %.067.lcssa.shrunk, label %.lr.ph90, label %.preheader

.lr.ph90:                                         ; preds = %.preheader83
  %43 = sext i32 %19 to i64
  %44 = getelementptr inbounds nuw i8, ptr %1, i64 52
  %45 = getelementptr inbounds nuw i8, ptr %1, i64 56
  br label %68

.lr.ph.split:                                     ; preds = %.lr.ph, %.lr.ph.split
  %.085 = phi i32 [ %52, %.lr.ph.split ], [ 0, %.lr.ph ]
  %.07284 = phi ptr [ %51, %.lr.ph.split ], [ %11, %.lr.ph ]
  %46 = tail call i64 @fwrite(ptr noundef %.07284, i64 noundef %32, i64 noundef 1, ptr noundef nonnull %0)
  %47 = icmp eq i64 %46, 1
  %48 = tail call i32 @fputc(i32 noundef 0, ptr noundef nonnull %0)
  %49 = load i32, ptr %34, align 8, !tbaa !32
  %50 = sext i32 %49 to i64
  %51 = getelementptr inbounds i8, ptr %.07284, i64 %50
  %52 = add nuw nsw i32 %.085, 1
  %53 = icmp slt i32 %52, %9
  %54 = select i1 %47, i1 %53, i1 false
  br i1 %54, label %.lr.ph.split, label %.preheader83, !llvm.loop !33

.preheader:                                       ; preds = %68, %26, %.preheader83
  %.168.lcssa.in = phi i1 [ false, %.preheader83 ], [ true, %26 ], [ %73, %68 ]
  %55 = icmp sgt i32 %22, 0
  %56 = select i1 %.168.lcssa.in, i1 %55, i1 false
  br i1 %56, label %.lr.ph93, label %.loopexit

.lr.ph93:                                         ; preds = %.preheader
  %57 = sext i32 %.fr98 to i64
  %58 = and i32 %.fr98, 1
  %.not81 = icmp eq i32 %58, 0
  %59 = getelementptr inbounds nuw i8, ptr %1, i64 60
  br i1 %.not81, label %.lr.ph93.split.us, label %.lr.ph93.split

.lr.ph93.split.us:                                ; preds = %.lr.ph93, %.lr.ph93.split.us
  %.292.us = phi i32 [ %65, %.lr.ph93.split.us ], [ 0, %.lr.ph93 ]
  %.07491.us = phi ptr [ %64, %.lr.ph93.split.us ], [ %17, %.lr.ph93 ]
  %60 = tail call i64 @fwrite(ptr noundef %.07491.us, i64 noundef %57, i64 noundef 1, ptr noundef nonnull %0)
  %61 = icmp eq i64 %60, 1
  %62 = load i32, ptr %59, align 4, !tbaa !34
  %63 = sext i32 %62 to i64
  %64 = getelementptr inbounds i8, ptr %.07491.us, i64 %63
  %65 = add nuw nsw i32 %.292.us, 1
  %66 = icmp slt i32 %65, %22
  %67 = select i1 %61, i1 %66, i1 false
  br i1 %67, label %.lr.ph93.split.us, label %.loopexit, !llvm.loop !35

68:                                               ; preds = %.lr.ph90, %68
  %.189 = phi i32 [ 0, %.lr.ph90 ], [ %80, %68 ]
  %.07388 = phi ptr [ %13, %.lr.ph90 ], [ %76, %68 ]
  %.07587 = phi ptr [ %15, %.lr.ph90 ], [ %79, %68 ]
  %69 = tail call i64 @fwrite(ptr noundef %.07388, i64 noundef %43, i64 noundef 1, ptr noundef nonnull %0)
  %70 = icmp eq i64 %69, 1
  %71 = tail call i64 @fwrite(ptr noundef %.07587, i64 noundef %43, i64 noundef 1, ptr noundef nonnull %0)
  %72 = icmp eq i64 %71, 1
  %73 = and i1 %70, %72
  %74 = load i32, ptr %44, align 4, !tbaa !36
  %75 = sext i32 %74 to i64
  %76 = getelementptr inbounds i8, ptr %.07388, i64 %75
  %77 = load i32, ptr %45, align 8, !tbaa !37
  %78 = sext i32 %77 to i64
  %79 = getelementptr inbounds i8, ptr %.07587, i64 %78
  %80 = add nuw nsw i32 %.189, 1
  %81 = icmp slt i32 %80, %21
  %82 = select i1 %73, i1 %81, i1 false
  br i1 %82, label %68, label %.preheader, !llvm.loop !38

.lr.ph93.split:                                   ; preds = %.lr.ph93, %.lr.ph93.split
  %.292 = phi i32 [ %89, %.lr.ph93.split ], [ 0, %.lr.ph93 ]
  %.07491 = phi ptr [ %88, %.lr.ph93.split ], [ %17, %.lr.ph93 ]
  %83 = tail call i64 @fwrite(ptr noundef %.07491, i64 noundef %57, i64 noundef 1, ptr noundef nonnull %0)
  %84 = icmp eq i64 %83, 1
  %85 = tail call i32 @fputc(i32 noundef 0, ptr noundef nonnull %0)
  %86 = load i32, ptr %59, align 4, !tbaa !34
  %87 = sext i32 %86 to i64
  %88 = getelementptr inbounds i8, ptr %.07491, i64 %87
  %89 = add nuw nsw i32 %.292, 1
  %90 = icmp slt i32 %89, %22
  %91 = select i1 %84, i1 %90, i1 false
  br i1 %91, label %.lr.ph93.split, label %.loopexit, !llvm.loop !35

.loopexit:                                        ; preds = %.lr.ph93.split, %.lr.ph93.split.us, %.preheader, %5, %2
  %.070.shrunk = phi i1 [ false, %2 ], [ false, %5 ], [ %.168.lcssa.in, %.preheader ], [ %61, %.lr.ph93.split.us ], [ %84, %.lr.ph93.split ]
  %.070 = zext i1 %.070.shrunk to i32
  ret i32 %.070
}